; Function Attrs: nounwind uwtable
define internal ptr @_testcapi_set_exc_info(ptr readnone captures(none) %0, ptr noundef readonly captures(none) %1, i64 noundef %2) #0 {
  %4 = alloca ptr, align 8
  %5 = alloca ptr, align 8
  %6 = alloca ptr, align 8
  %or.cond = icmp eq i64 %2, 3
  br i1 %or.cond, label %9, label %7

7:                                                ; preds = %3
  %8 = tail call i32 @_PyArg_CheckPositional(ptr noundef nonnull @.str.16, i64 noundef %2, i64 noundef 3, i64 noundef 3) #8
  %.not = icmp eq i32 %8, 0
  br i1 %.not, label %55, label %9

9:                                                ; preds = %3, %7
  %10 = load ptr, ptr %1, align 8, !tbaa !3
  %11 = getelementptr i8, ptr %1, i64 8
  %12 = load ptr, ptr %11, align 8, !tbaa !3
  %13 = getelementptr i8, ptr %1, i64 16
  %14 = load ptr, ptr %13, align 8, !tbaa !3
  call void @llvm.lifetime.start.p0(i64 8, ptr nonnull %4) #8
  store ptr @uninitialized, ptr %4, align 8, !tbaa !3
  call void @llvm.lifetime.start.p0(i64 8, ptr nonnull %5) #8
  store ptr @uninitialized, ptr %5, align 8, !tbaa !3
  call void @llvm.lifetime.start.p0(i64 8, ptr nonnull %6) #8
  store ptr @uninitialized, ptr %6, align 8, !tbaa !3
  call void @PyErr_GetExcInfo(ptr noundef nonnull %4, ptr noundef nonnull %5, ptr noundef nonnull %6) #8
  %15 = load i32, ptr %10, align 8, !tbaa !20
  %16 = icmp slt i32 %15, 0
  br i1 %16, label %Py_INCREF.exit10.i, label %17

17:                                               ; preds = %9
  %18 = add nuw i32 %15, 1
  store i32 %18, ptr %10, align 8, !tbaa !20
  br label %Py_INCREF.exit10.i

Py_INCREF.exit10.i:                               ; preds = %17, %9
  %19 = load i32, ptr %12, align 8, !tbaa !20
  %20 = icmp slt i32 %19, 0
  br i1 %20, label %Py_INCREF.exit9.i, label %21

21:                                               ; preds = %Py_INCREF.exit10.i
  %22 = add nuw i32 %19, 1
  store i32 %22, ptr %12, align 8, !tbaa !20
  br label %Py_INCREF.exit9.i

Py_INCREF.exit9.i:                                ; preds = %21, %Py_INCREF.exit10.i
  %23 = load i32, ptr %14, align 8, !tbaa !20
  %24 = icmp slt i32 %23, 0
  br i1 %24, label %Py_INCREF.exit.i, label %25

25:                                               ; preds = %Py_INCREF.exit9.i
  %26 = add nuw i32 %23, 1
  store i32 %26, ptr %14, align 8, !tbaa !20
  br label %Py_INCREF.exit.i

Py_INCREF.exit.i:                                 ; preds = %25, %Py_INCREF.exit9.i
  call void @PyErr_SetExcInfo(ptr noundef nonnull %10, ptr noundef nonnull %12, ptr noundef nonnull %14) #8
  %27 = load ptr, ptr %4, align 8, !tbaa !3
  %.not.i = icmp eq ptr %27, null
  %28 = select i1 %.not.i, ptr @_Py_NoneStruct, ptr %27
  %29 = load ptr, ptr %5, align 8, !tbaa !3
  %.not7.i = icmp eq ptr %29, null
  %30 = select i1 %.not7.i, ptr @_Py_NoneStruct, ptr %29
  %31 = load ptr, ptr %6, align 8, !tbaa !3
  %.not8.i = icmp eq ptr %31, null
  %32 = select i1 %.not8.i, ptr @_Py_NoneStruct, ptr %31
  %33 = call ptr (i64, ...) @PyTuple_Pack(i64 noundef 3, ptr noundef nonnull %28, ptr noundef nonnull %30, ptr noundef nonnull %32) #8
  %34 = load ptr, ptr %4, align 8, !tbaa !3
  %.not.i.i = icmp eq ptr %34, null
  br i1 %.not.i.i, label %Py_XDECREF.exit.i, label %35

35:                                               ; preds = %Py_INCREF.exit.i
  %36 = load i32, ptr %34, align 8, !tbaa !20
  %.not.i.i.i = icmp sgt i32 %36, -1
  br i1 %.not.i.i.i, label %37, label %Py_XDECREF.exit.i

37:                                               ; preds = %35
  %38 = add nsw i32 %36, -1
  store i32 %38, ptr %34, align 8, !tbaa !20
  %39 = icmp eq i32 %38, 0
  br i1 %39, label %40, label %Py_XDECREF.exit.i

40:                                               ; preds = %37
  call void @_Py_Dealloc(ptr noundef nonnull %34) #8
  br label %Py_XDECREF.exit.i

Py_XDECREF.exit.i:                                ; preds = %40, %37, %35, %Py_INCREF.exit.i
  %41 = load ptr, ptr %5, align 8, !tbaa !3
  %.not.i11.i = icmp eq ptr %41, null
  br i1 %.not.i11.i, label %Py_XDECREF.exit13.i, label %42

42:                                               ; preds = %Py_XDECREF.exit.i
  %43 = load i32, ptr %41, align 8, !tbaa !20
  %.not.i.i12.i = icmp sgt i32 %43, -1
  br i1 %.not.i.i12.i, label %44, label %Py_XDECREF.exit13.i

44:                                               ; preds = %42
  %45 = add nsw i32 %43, -1
  store i32 %45, ptr %41, align 8, !tbaa !20
  %46 = icmp eq i32 %45, 0
  br i1 %46, label %47, label %Py_XDECREF.exit13.i

47:                                               ; preds = %44
  call void @_Py_Dealloc(ptr noundef nonnull %41) #8
  br label %Py_XDECREF.exit13.i

Py_XDECREF.exit13.i:                              ; preds = %47, %44, %42, %Py_XDECREF.exit.i
  %48 = load ptr, ptr %6, align 8, !tbaa !3
  %.not.i14.i = icmp eq ptr %48, null
  br i1 %.not.i14.i, label %_testcapi_set_exc_info_impl.exit, label %49

49:                                               ; preds = %Py_XDECREF.exit13.i
  %50 = load i32, ptr %48, align 8, !tbaa !20
  %.not.i.i15.i = icmp sgt i32 %50, -1
  br i1 %.not.i.i15.i, label %51, label %_testcapi_set_exc_info_impl.exit

51:                                               ; preds = %49
  %52 = add nsw i32 %50, -1
  store i32 %52, ptr %48, align 8, !tbaa !20
  %53 = icmp eq i32 %52, 0
  br i1 %53, label %54, label %_testcapi_set_exc_info_impl.exit

54:                                               ; preds = %51
  call void @_Py_Dealloc(ptr noundef nonnull %48) #8
  br label %_testcapi_set_exc_info_impl.exit

_testcapi_set_exc_info_impl.exit:                 ; preds = %Py_XDECREF.exit13.i, %49, %51, %54
  call void @llvm.lifetime.end.p0(i64 8, ptr nonnull %6) #8
  call void @llvm.lifetime.end.p0(i64 8, ptr nonnull %5) #8
  call void @llvm.lifetime.end.p0(i64 8, ptr nonnull %4) #8
  br label %55

55:                                               ; preds = %7, %_testcapi_set_exc_info_impl.exit
  %.0 = phi ptr [ %33, %_testcapi_set_exc_info_impl.exit ], [ null, %7 ]
  ret ptr %.0
}